target datalayout = "e-m:e-p270:32:32-p271:32:32-p272:64:64-i64:64-i128:128-f80:128-n8:16:32:64-S128"
target triple = "x86_64-pc-linux-gnu"

%struct.strbuf = type { i64, i64, ptr }

@stdout = external global ptr, align 8
@.str.24 = private unnamed_addr constant [2 x i8] c"\0A\00", align 1
@__const.parse_get.url = private unnamed_addr constant %struct.strbuf { i64 0, i64 0, ptr @strbuf_slopbuf }, align 8
@__const.parse_get.path = private unnamed_addr constant %struct.strbuf { i64 0, i64 0, ptr @strbuf_slopbuf }, align 8
@.str.151 = private unnamed_addr constant [55 x i8] c"protocol error: expected '<url> <path>', missing space\00", align 1
@.str.152 = private unnamed_addr constant [36 x i8] c"failed to download file at URL '%s'\00", align 1

; Function Attrs: inlinehint nounwind uwtable
define internal void @strbuf_addstr(ptr noundef %0, ptr noundef %1) #4 {
  %3 = alloca ptr, align 8
  %4 = alloca ptr, align 8
  store ptr %0, ptr %3, align 8, !tbaa !35
  store ptr %1, ptr %4, align 8, !tbaa !18
  %5 = load ptr, ptr %3, align 8, !tbaa !35
  %6 = load ptr, ptr %4, align 8, !tbaa !18
  %7 = load ptr, ptr %4, align 8, !tbaa !18
  %8 = call i64 @strlen(ptr noundef %7) #12
  call void @strbuf_add(ptr noundef %5, ptr noundef %6, i64 noundef %8)
  ret void
}

; Function Attrs: nounwind uwtable
define internal void @parse_get(ptr noundef %0) #0 {
  %2 = alloca ptr, align 8
  %3 = alloca %struct.strbuf, align 8
  %4 = alloca %struct.strbuf, align 8
  %5 = alloca ptr, align 8
  store ptr %0, ptr %2, align 8, !tbaa !18
  call void @llvm.lifetime.start.p0(i64 24, ptr %3) #10
  call void @llvm.memcpy.p0.p0.i64(ptr align 8 %3, ptr align 8 @__const.parse_get.url, i64 24, i1 false)
  call void @llvm.lifetime.start.p0(i64 24, ptr %4) #10
  call void @llvm.memcpy.p0.p0.i64(ptr align 8 %4, ptr align 8 @__const.parse_get.path, i64 24, i1 false)
  call void @llvm.lifetime.start.p0(i64 8, ptr %5) #10
  %6 = load ptr, ptr %2, align 8, !tbaa !18
  %7 = call ptr @strchr(ptr noundef %6, i32 noundef 32) #12
  store ptr %7, ptr %5, align 8, !tbaa !18
  %8 = load ptr, ptr %5, align 8, !tbaa !18
  %9 = icmp ne ptr %8, null
  br i1 %9, label %12, label %10

10:                                               ; preds = %1
  %11 = call ptr @_(ptr noundef @.str.151)
  call void (ptr, ...) @die(ptr noundef %11) #11
  unreachable

12:                                               ; preds = %1
  %13 = load ptr, ptr %2, align 8, !tbaa !18
  %14 = load ptr, ptr %5, align 8, !tbaa !18
  %15 = load ptr, ptr %2, align 8, !tbaa !18
  %16 = ptrtoint ptr %14 to i64
  %17 = ptrtoint ptr %15 to i64
  %18 = sub i64 %16, %17
  call void @strbuf_add(ptr noundef %3, ptr noundef %13, i64 noundef %18)
  %19 = load ptr, ptr %5, align 8, !tbaa !18
  %20 = getelementptr inbounds i8, ptr %19, i64 1
  call void @strbuf_addstr(ptr noundef %4, ptr noundef %20)
  %21 = getelementptr inbounds nuw %struct.strbuf, ptr %3, i32 0, i32 2
  %22 = load ptr, ptr %21, align 8, !tbaa !28
  %23 = getelementptr inbounds nuw %struct.strbuf, ptr %4, i32 0, i32 2
  %24 = load ptr, ptr %23, align 8, !tbaa !28
  %25 = call i32 @http_get_file(ptr noundef %22, ptr noundef %24, ptr noundef null)
  %26 = icmp ne i32 %25, 0
  br i1 %26, label %27, label %31

27:                                               ; preds = %12
  %28 = call ptr @_(ptr noundef @.str.152)
  %29 = getelementptr inbounds nuw %struct.strbuf, ptr %3, i32 0, i32 2
  %30 = load ptr, ptr %29, align 8, !tbaa !28
  call void (ptr, ...) @die(ptr noundef %28, ptr noundef %30) #11
  unreachable

31:                                               ; preds = %12
  call void @strbuf_release(ptr noundef %3)
  call void @strbuf_release(ptr noundef %4)
  %32 = call i32 (ptr, ...) @printf(ptr noundef @.str.24)
  %33 = load ptr, ptr @stdout, align 8, !tbaa !30
  %34 = call i32 @fflush(ptr noundef %33)
  call void @llvm.lifetime.end.p0(i64 8, ptr %5) #10
  call void @llvm.lifetime.end.p0(i64 24, ptr %4) #10
  call void @llvm.lifetime.end.p0(i64 24, ptr %3) #10
  ret void
}