; Function Attrs: nounwind uwtable
define internal fastcc void @parse_get(ptr noundef %0) unnamed_addr #0 {
  %2 = alloca %struct.strbuf, align 8
  %3 = alloca %struct.strbuf, align 8
  call void @llvm.lifetime.start.p0(i64 24, ptr nonnull %2) #17
  call void @llvm.memcpy.p0.p0.i64(ptr noundef nonnull align 8 dereferenceable(24) %2, ptr noundef nonnull align 8 dereferenceable(24) @__const.stateless_connect.buf, i64 24, i1 false)
  call void @llvm.lifetime.start.p0(i64 24, ptr nonnull %3) #17
  call void @llvm.memcpy.p0.p0.i64(ptr noundef nonnull align 8 dereferenceable(24) %3, ptr noundef nonnull align 8 dereferenceable(24) @__const.stateless_connect.buf, i64 24, i1 false)
  %4 = tail call ptr @strchr(ptr noundef nonnull dereferenceable(1) %0, i32 noundef 32) #19
  %.not = icmp eq ptr %4, null
  br i1 %.not, label %5, label %7

5:                                                ; preds = %1
  %6 = tail call fastcc ptr @_(ptr noundef nonnull @.str.151)
  tail call void (ptr, ...) @die(ptr noundef %6) #18
  unreachable

7:                                                ; preds = %1
  %8 = ptrtoint ptr %4 to i64
  %9 = ptrtoint ptr %0 to i64
  %10 = sub i64 %8, %9
  call void @strbuf_add(ptr noundef nonnull %2, ptr noundef nonnull %0, i64 noundef %10) #17
  %11 = getelementptr inbounds nuw i8, ptr %4, i64 1
  %12 = call i64 @strlen(ptr noundef nonnull dereferenceable(1) %11) #19
  call void @strbuf_add(ptr noundef nonnull %3, ptr noundef nonnull %11, i64 noundef %12) #17
  %13 = getelementptr inbounds nuw i8, ptr %2, i64 16
  %14 = load ptr, ptr %13, align 8, !tbaa !27
  %15 = getelementptr inbounds nuw i8, ptr %3, i64 16
  %16 = load ptr, ptr %15, align 8, !tbaa !27
  %17 = call i32 @http_get_file(ptr noundef %14, ptr noundef %16, ptr noundef null) #17
  %.not6 = icmp eq i32 %17, 0
  br i1 %.not6, label %21, label %18

18:                                               ; preds = %7
  %19 = call fastcc ptr @_(ptr noundef nonnull @.str.152)
  %20 = load ptr, ptr %13, align 8, !tbaa !27
  call void (ptr, ...) @die(ptr noundef %19, ptr noundef %20) #18
  unreachable

21:                                               ; preds = %7
  call void @strbuf_release(ptr noundef nonnull %2) #17
  call void @strbuf_release(ptr noundef nonnull %3) #17
  %putchar = call i32 @putchar(i32 10)
  %22 = load ptr, ptr @stdout, align 8, !tbaa !29
  %23 = call i32 @fflush(ptr noundef %22)
  call void @llvm.lifetime.end.p0(i64 24, ptr nonnull %3) #17
  call void @llvm.lifetime.end.p0(i64 24, ptr nonnull %2) #17
  ret void
}